target datalayout = "e-m:e-p270:32:32-p271:32:32-p272:64:64-i64:64-i128:128-f80:128-n8:16:32:64-S128"
target triple = "x86_64-pc-linux-gnu"

%"class.clang::SourceLocation" = type { i32 }
%"class.clang::QualType" = type { %"class.llvm::PointerIntPair" }
%"class.llvm::PointerIntPair" = type { %"struct.llvm::detail::PunnedPointer" }
%"struct.llvm::detail::PunnedPointer" = type { [8 x i8] }
%"class.clang::Expr" = type { %"class.clang::ValueStmt", %"class.clang::QualType" }
%"class.clang::ValueStmt" = type { %"class.clang::Stmt" }
%"class.clang::Stmt" = type { %union.anon }
%union.anon = type { %"class.clang::Stmt::PseudoObjectExprBitfields" }
%"class.clang::Stmt::PseudoObjectExprBitfields" = type { i64 }
%"class.clang::ActionResult" = type { i64 }

; Function Attrs: mustprogress nounwind uwtable
define linkonce_odr hidden noundef i32 @_ZNK5clang8CallExpr13getNumPreArgsEv(ptr noundef nonnull align 8 dereferenceable(24) %0) #0 comdat align 2 {
  %2 = alloca ptr, align 8
  store ptr %0, ptr %2, align 8
  %3 = load ptr, ptr %2, align 8
  %4 = getelementptr inbounds nuw %"class.clang::Stmt", ptr %3, i32 0, i32 0
  %5 = load i32, ptr %4, align 8
  %6 = lshr i32 %5, 18
  %7 = and i32 %6, 1
  ret i32 %7
}

; Function Attrs: mustprogress nounwind uwtable
define linkonce_odr hidden noundef ptr @_ZN5clang8CallExpr16getTrailingStmtsEv(ptr noundef nonnull align 8 dereferenceable(24) %0) #0 comdat align 2 {
  %2 = alloca ptr, align 8
  store ptr %0, ptr %2, align 8
  %3 = load ptr, ptr %2, align 8
  %4 = getelementptr inbounds nuw %"class.clang::Stmt", ptr %3, i32 0, i32 0
  %5 = load i32, ptr %4, align 8
  %6 = lshr i32 %5, 24
  %7 = sext i32 %6 to i64
  %8 = getelementptr inbounds i8, ptr %3, i64 %7
  ret ptr %8
}

; Function Attrs: mustprogress nounwind uwtable
define linkonce_odr hidden noundef ptr @_ZN4llvm21PointerLikeTypeTraitsIPN5clang4ExprEE18getFromVoidPointerEPv(ptr noundef %0) #0 comdat align 2 {
  %2 = alloca ptr, align 8
  store ptr %0, ptr %2, align 8
  %3 = load ptr, ptr %2, align 8
  ret ptr %3
}

; Function Attrs: mustprogress nounwind uwtable
define linkonce_odr hidden noundef ptr @_ZN5clang8CallExpr7getArgsEv(ptr noundef nonnull align 8 dereferenceable(24) %0) #0 comdat align 2 {
  %2 = alloca ptr, align 8
  store ptr %0, ptr %2, align 8
  %3 = load ptr, ptr %2, align 8
  %4 = call noundef ptr @_ZN5clang8CallExpr16getTrailingStmtsEv(ptr noundef nonnull align 8 dereferenceable(24) %3)
  %5 = getelementptr inbounds ptr, ptr %4, i64 1
  %6 = call noundef i32 @_ZNK5clang8CallExpr13getNumPreArgsEv(ptr noundef nonnull align 8 dereferenceable(24) %3)
  %7 = zext i32 %6 to i64
  %8 = getelementptr inbounds ptr, ptr %5, i64 %7
  ret ptr %8
}

; Function Attrs: mustprogress nounwind uwtable
define linkonce_odr hidden void @_ZN5clang4Expr7setTypeENS_8QualTypeE(ptr noundef nonnull align 8 dereferenceable(16) %0, i64 %1) #0 comdat align 2 {
  %3 = alloca %"class.clang::QualType", align 8
  %4 = alloca ptr, align 8
  %5 = getelementptr inbounds nuw %"class.clang::QualType", ptr %3, i32 0, i32 0
  %6 = getelementptr inbounds nuw %"class.llvm::PointerIntPair", ptr %5, i32 0, i32 0
  %7 = getelementptr inbounds nuw %"struct.llvm::detail::PunnedPointer", ptr %6, i32 0, i32 0
  store i64 %1, ptr %7, align 8
  store ptr %0, ptr %4, align 8
  %8 = load ptr, ptr %4, align 8
  %9 = getelementptr inbounds nuw %"class.clang::Expr", ptr %8, i32 0, i32 1
  call void @llvm.memcpy.p0.p0.i64(ptr align 8 %9, ptr align 8 %3, i64 8, i1 false)
  ret void
}

; Function Attrs: mustprogress nounwind uwtable
define linkonce_odr hidden i64 @_ZNK5clang4Expr7getTypeEv(ptr noundef nonnull align 8 dereferenceable(16) %0) #0 comdat align 2 {
  %2 = alloca %"class.clang::QualType", align 8
  %3 = alloca ptr, align 8
  store ptr %0, ptr %3, align 8
  %4 = load ptr, ptr %3, align 8
  %5 = getelementptr inbounds nuw %"class.clang::Expr", ptr %4, i32 0, i32 1
  call void @llvm.memcpy.p0.p0.i64(ptr align 8 %2, ptr align 8 %5, i64 8, i1 false)
  %6 = getelementptr inbounds nuw %"class.clang::QualType", ptr %2, i32 0, i32 0
  %7 = getelementptr inbounds nuw %"class.llvm::PointerIntPair", ptr %6, i32 0, i32 0
  %8 = getelementptr inbounds nuw %"struct.llvm::detail::PunnedPointer", ptr %7, i32 0, i32 0
  %9 = load i64, ptr %8, align 8
  ret i64 %9
}

; Function Attrs: mustprogress nounwind uwtable
define linkonce_odr hidden void @_ZN5clang8CallExpr6setArgEjPNS_4ExprE(ptr noundef nonnull align 8 dereferenceable(24) %0, i32 noundef %1, ptr noundef %2) #0 comdat align 2 {
  %4 = alloca ptr, align 8
  %5 = alloca i32, align 4
  %6 = alloca ptr, align 8
  store ptr %0, ptr %4, align 8
  store i32 %1, ptr %5, align 4
  store ptr %2, ptr %6, align 8
  %7 = load ptr, ptr %4, align 8
  %8 = load ptr, ptr %6, align 8
  %9 = call noundef ptr @_ZN5clang8CallExpr7getArgsEv(ptr noundef nonnull align 8 dereferenceable(24) %7)
  %10 = load i32, ptr %5, align 4
  %11 = zext i32 %10 to i64
  %12 = getelementptr inbounds ptr, ptr %9, i64 %11
  store ptr %8, ptr %12, align 8
  ret void
}

; Function Attrs: mustprogress nounwind uwtable
define linkonce_odr hidden noundef ptr @_ZNK5clang12ActionResultIPNS_4ExprELb1EE3getEv(ptr noundef nonnull align 8 dereferenceable(8) %0) #0 comdat align 2 {
  %2 = alloca ptr, align 8
  %3 = alloca ptr, align 8
  store ptr %0, ptr %2, align 8
  %4 = load ptr, ptr %2, align 8
  %5 = getelementptr inbounds nuw %"class.clang::ActionResult", ptr %4, i32 0, i32 0
  %6 = load i64, ptr %5, align 8
  %7 = and i64 %6, -2
  %8 = inttoptr i64 %7 to ptr
  store ptr %8, ptr %3, align 8
  %9 = load ptr, ptr %3, align 8
  %10 = call noundef ptr @_ZN4llvm21PointerLikeTypeTraitsIPN5clang4ExprEE18getFromVoidPointerEPv(ptr noundef %9)
  ret ptr %10
}

; Function Attrs: mustprogress nounwind uwtable
define linkonce_odr hidden noundef zeroext i1 @_ZNK5clang12ActionResultIPNS_4ExprELb1EE9isInvalidEv(ptr noundef nonnull align 8 dereferenceable(8) %0) #0 comdat align 2 {
  %2 = alloca ptr, align 8
  store ptr %0, ptr %2, align 8
  %3 = load ptr, ptr %2, align 8
  %4 = getelementptr inbounds nuw %"class.clang::ActionResult", ptr %3, i32 0, i32 0
  %5 = load i64, ptr %4, align 8
  %6 = icmp eq i64 %5, 1
  ret i1 %6
}

; Function Attrs: mustprogress nounwind uwtable
define linkonce_odr hidden noundef ptr @_ZN5clang8CallExpr6getArgEj(ptr noundef nonnull align 8 dereferenceable(24) %0, i32 noundef %1) #0 comdat align 2 {
  %3 = alloca ptr, align 8
  %4 = alloca i32, align 4
  store ptr %0, ptr %3, align 8
  store i32 %1, ptr %4, align 4
  %5 = load ptr, ptr %3, align 8
  %6 = call noundef ptr @_ZN5clang8CallExpr7getArgsEv(ptr noundef nonnull align 8 dereferenceable(24) %5)
  %7 = load i32, ptr %4, align 4
  %8 = zext i32 %7 to i64
  %9 = getelementptr inbounds ptr, ptr %6, i64 %8
  %10 = load ptr, ptr %9, align 8
  ret ptr %10
}

; Function Attrs: mustprogress nounwind uwtable
define dso_local noundef zeroext i1 @_ZN5clang4Sema39PrepareBuiltinElementwiseMathOneArgCallEPNS_8CallExprE(ptr noundef nonnull align 8 dereferenceable(17560) %0, ptr noundef %1) #0 align 2 {
  %3 = alloca i1, align 1
  %4 = alloca ptr, align 8
  %5 = alloca ptr, align 8
  %6 = alloca %"class.clang::ActionResult", align 8
  %7 = alloca %"class.clang::QualType", align 8
  %8 = alloca %"class.clang::SourceLocation", align 4
  %9 = alloca %"class.clang::QualType", align 8
  %10 = alloca %"class.clang::QualType", align 8
  store ptr %0, ptr %4, align 8
  store ptr %1, ptr %5, align 8
  %11 = load ptr, ptr %4, align 8
  %12 = load ptr, ptr %5, align 8
  %13 = call noundef zeroext i1 @_ZN5clang4Sema13checkArgCountEPNS_8CallExprEj(ptr noundef nonnull align 8 dereferenceable(17560) %11, ptr noundef %12, i32 noundef 1)
  br i1 %13, label %14, label %15

14:                                               ; preds = %2
  store i1 true, ptr %3, align 1
  br label %47

15:                                               ; preds = %2
  %16 = load ptr, ptr %5, align 8
  %17 = call noundef ptr @_ZN5clang8CallExpr6getArgEj(ptr noundef nonnull align 8 dereferenceable(24) %16, i32 noundef 0)
  %18 = call i64 @_ZN5clang4Sema21UsualUnaryConversionsEPNS_4ExprE(ptr noundef nonnull align 8 dereferenceable(17560) %11, ptr noundef %17)
  %19 = getelementptr inbounds nuw %"class.clang::ActionResult", ptr %6, i32 0, i32 0
  store i64 %18, ptr %19, align 8
  %20 = call noundef zeroext i1 @_ZNK5clang12ActionResultIPNS_4ExprELb1EE9isInvalidEv(ptr noundef nonnull align 8 dereferenceable(8) %6)
  br i1 %20, label %21, label %22

21:                                               ; preds = %15
  store i1 true, ptr %3, align 1
  br label %47

22:                                               ; preds = %15
  %23 = load ptr, ptr %5, align 8
  %24 = call noundef ptr @_ZNK5clang12ActionResultIPNS_4ExprELb1EE3getEv(ptr noundef nonnull align 8 dereferenceable(8) %6)
  call void @_ZN5clang8CallExpr6setArgEjPNS_4ExprE(ptr noundef nonnull align 8 dereferenceable(24) %23, i32 noundef 0, ptr noundef %24)
  %25 = call noundef ptr @_ZNK5clang12ActionResultIPNS_4ExprELb1EE3getEv(ptr noundef nonnull align 8 dereferenceable(8) %6)
  %26 = call i64 @_ZNK5clang4Expr7getTypeEv(ptr noundef nonnull align 8 dereferenceable(16) %25)
  %27 = getelementptr inbounds nuw %"class.clang::QualType", ptr %7, i32 0, i32 0
  %28 = getelementptr inbounds nuw %"class.llvm::PointerIntPair", ptr %27, i32 0, i32 0
  %29 = getelementptr inbounds nuw %"struct.llvm::detail::PunnedPointer", ptr %28, i32 0, i32 0
  store i64 %26, ptr %29, align 8
  %30 = call noundef ptr @_ZNK5clang12ActionResultIPNS_4ExprELb1EE3getEv(ptr noundef nonnull align 8 dereferenceable(8) %6)
  %31 = call i32 @_ZNK5clang4Stmt11getBeginLocEv(ptr noundef nonnull align 8 dereferenceable(8) %30) #14
  %32 = getelementptr inbounds nuw %"class.clang::SourceLocation", ptr %8, i32 0, i32 0
  store i32 %31, ptr %32, align 4
  call void @llvm.memcpy.p0.p0.i64(ptr align 8 %9, ptr align 8 %7, i64 8, i1 false)
  %33 = getelementptr inbounds nuw %"class.clang::SourceLocation", ptr %8, i32 0, i32 0
  %34 = load i32, ptr %33, align 4
  %35 = getelementptr inbounds nuw %"class.clang::QualType", ptr %9, i32 0, i32 0
  %36 = getelementptr inbounds nuw %"class.llvm::PointerIntPair", ptr %35, i32 0, i32 0
  %37 = getelementptr inbounds nuw %"struct.llvm::detail::PunnedPointer", ptr %36, i32 0, i32 0
  %38 = load i64, ptr %37, align 8
  %39 = call noundef zeroext i1 @_ZL27checkMathBuiltinElementTypeRN5clang4SemaENS_14SourceLocationENS_8QualTypeEi(ptr noundef nonnull align 8 dereferenceable(17560) %11, i32 %34, i64 %38, i32 noundef 1)
  br i1 %39, label %40, label %41

40:                                               ; preds = %22
  store i1 true, ptr %3, align 1
  br label %47

41:                                               ; preds = %22
  %42 = load ptr, ptr %5, align 8
  call void @llvm.memcpy.p0.p0.i64(ptr align 8 %10, ptr align 8 %7, i64 8, i1 false)
  %43 = getelementptr inbounds nuw %"class.clang::QualType", ptr %10, i32 0, i32 0
  %44 = getelementptr inbounds nuw %"class.llvm::PointerIntPair", ptr %43, i32 0, i32 0
  %45 = getelementptr inbounds nuw %"struct.llvm::detail::PunnedPointer", ptr %44, i32 0, i32 0
  %46 = load i64, ptr %45, align 8
  call void @_ZN5clang4Expr7setTypeENS_8QualTypeE(ptr noundef nonnull align 8 dereferenceable(16) %42, i64 %46)
  store i1 false, ptr %3, align 1
  br label %47

47:                                               ; preds = %41, %40, %21, %14
  %48 = load i1, ptr %3, align 1
  ret i1 %48
}