; Function Attrs: mustprogress nounwind uwtable
define dso_local noundef zeroext i1 @_ZN5clang4Sema39PrepareBuiltinElementwiseMathOneArgCallEPNS_8CallExprE(ptr noundef nonnull align 8 dereferenceable(17560) %0, ptr noundef %1) local_unnamed_addr #0 align 2 {
  %3 = tail call noundef zeroext i1 @_ZN5clang4Sema13checkArgCountEPNS_8CallExprEj(ptr noundef nonnull align 8 dereferenceable(17560) %0, ptr noundef %1, i32 noundef 1)
  br i1 %3, label %34, label %4

4:                                                ; preds = %2
  %5 = load i32, ptr %1, align 8
  %6 = lshr i32 %5, 24
  %7 = zext nneg i32 %6 to i64
  %8 = getelementptr inbounds i8, ptr %1, i64 %7
  %9 = getelementptr inbounds i8, ptr %8, i64 8
  %10 = lshr i32 %5, 18
  %11 = and i32 %10, 1
  %12 = zext nneg i32 %11 to i64
  %13 = getelementptr inbounds ptr, ptr %9, i64 %12
  %14 = load ptr, ptr %13, align 8
  %15 = tail call i64 @_ZN5clang4Sema21UsualUnaryConversionsEPNS_4ExprE(ptr noundef nonnull align 8 dereferenceable(17560) %0, ptr noundef %14) #25
  %16 = icmp eq i64 %15, 1
  br i1 %16, label %34, label %17

17:                                               ; preds = %4
  %18 = and i64 %15, -2
  %19 = inttoptr i64 %18 to ptr
  %20 = load i32, ptr %1, align 8
  %21 = lshr i32 %20, 24
  %22 = zext nneg i32 %21 to i64
  %23 = getelementptr inbounds i8, ptr %1, i64 %22
  %24 = getelementptr inbounds i8, ptr %23, i64 8
  %25 = lshr i32 %20, 18
  %26 = and i32 %25, 1
  %27 = zext nneg i32 %26 to i64
  %28 = getelementptr inbounds ptr, ptr %24, i64 %27
  store ptr %19, ptr %28, align 8
  %29 = getelementptr inbounds nuw i8, ptr %19, i64 8
  %.sroa.0.0.copyload.i = load i64, ptr %29, align 8
  %30 = tail call i32 @_ZNK5clang4Stmt11getBeginLocEv(ptr noundef nonnull align 8 dereferenceable(8) %19) #26
  %31 = tail call fastcc noundef zeroext i1 @_ZL27checkMathBuiltinElementTypeRN5clang4SemaENS_14SourceLocationENS_8QualTypeEi(ptr noundef nonnull align 8 dereferenceable(17560) %0, i32 %30, i64 %.sroa.0.0.copyload.i, i32 noundef 1)
  br i1 %31, label %34, label %32

32:                                               ; preds = %17
  %33 = getelementptr inbounds nuw i8, ptr %1, i64 8
  store i64 %.sroa.0.0.copyload.i, ptr %33, align 8
  br label %34

34:                                               ; preds = %17, %4, %2, %32
  %.0 = phi i1 [ false, %32 ], [ true, %2 ], [ true, %4 ], [ true, %17 ]
  ret i1 %.0
}